target datalayout = "e-m:e-p270:32:32-p271:32:32-p272:64:64-i64:64-i128:128-f80:128-n8:16:32:64-S128"
target triple = "x86_64-pc-linux-gnu"

%struct.evkeyvalq = type { ptr, ptr }
%struct.evkeyval = type { %struct.anon.10, ptr, ptr }
%struct.anon.10 = type { ptr, ptr }

@.str.2 = private unnamed_addr constant [11 x i8] c"%s: strdup\00", align 1
@.str.31 = private unnamed_addr constant [11 x i8] c"%s: calloc\00", align 1
@__func__.evhttp_add_header_internal = private unnamed_addr constant [27 x i8] c"evhttp_add_header_internal\00", align 1

; Function Attrs: nounwind uwtable
define internal i32 @evhttp_add_header_internal(ptr noundef %0, ptr noundef %1, ptr noundef %2) #0 {
  %4 = alloca i32, align 4
  %5 = alloca ptr, align 8
  %6 = alloca ptr, align 8
  %7 = alloca ptr, align 8
  %8 = alloca ptr, align 8
  %9 = alloca i32, align 4
  store ptr %0, ptr %5, align 8
  store ptr %1, ptr %6, align 8
  store ptr %2, ptr %7, align 8
  call void @llvm.lifetime.start.p0(i64 8, ptr %8) #11
  %10 = call ptr @event_mm_calloc_(i64 noundef 1, i64 noundef 32)
  store ptr %10, ptr %8, align 8
  %11 = load ptr, ptr %8, align 8
  %12 = icmp eq ptr %11, null
  br i1 %12, label %13, label %14

13:                                               ; preds = %3
  call void (ptr, ...) @event_warn(ptr noundef @.str.31, ptr noundef @__func__.evhttp_add_header_internal)
  store i32 -1, ptr %4, align 4
  store i32 1, ptr %9, align 4
  br label %55

14:                                               ; preds = %3
  %15 = load ptr, ptr %6, align 8
  %16 = call ptr @event_mm_strdup_(ptr noundef %15)
  %17 = load ptr, ptr %8, align 8
  %18 = getelementptr inbounds nuw %struct.evkeyval, ptr %17, i32 0, i32 1
  store ptr %16, ptr %18, align 8
  %19 = icmp eq ptr %16, null
  br i1 %19, label %20, label %22

20:                                               ; preds = %14
  %21 = load ptr, ptr %8, align 8
  call void @event_mm_free_(ptr noundef %21)
  call void (ptr, ...) @event_warn(ptr noundef @.str.2, ptr noundef @__func__.evhttp_add_header_internal)
  store i32 -1, ptr %4, align 4
  store i32 1, ptr %9, align 4
  br label %55

22:                                               ; preds = %14
  %23 = load ptr, ptr %7, align 8
  %24 = call ptr @event_mm_strdup_(ptr noundef %23)
  %25 = load ptr, ptr %8, align 8
  %26 = getelementptr inbounds nuw %struct.evkeyval, ptr %25, i32 0, i32 2
  store ptr %24, ptr %26, align 8
  %27 = icmp eq ptr %24, null
  br i1 %27, label %28, label %33

28:                                               ; preds = %22
  %29 = load ptr, ptr %8, align 8
  %30 = getelementptr inbounds nuw %struct.evkeyval, ptr %29, i32 0, i32 1
  %31 = load ptr, ptr %30, align 8
  call void @event_mm_free_(ptr noundef %31)
  %32 = load ptr, ptr %8, align 8
  call void @event_mm_free_(ptr noundef %32)
  call void (ptr, ...) @event_warn(ptr noundef @.str.2, ptr noundef @__func__.evhttp_add_header_internal)
  store i32 -1, ptr %4, align 4
  store i32 1, ptr %9, align 4
  br label %55

33:                                               ; preds = %22
  br label %34

34:                                               ; preds = %33
  %35 = load ptr, ptr %8, align 8
  %36 = getelementptr inbounds nuw %struct.evkeyval, ptr %35, i32 0, i32 0
  %37 = getelementptr inbounds nuw %struct.anon.10, ptr %36, i32 0, i32 0
  store ptr null, ptr %37, align 8
  %38 = load ptr, ptr %5, align 8
  %39 = getelementptr inbounds nuw %struct.evkeyvalq, ptr %38, i32 0, i32 1
  %40 = load ptr, ptr %39, align 8
  %41 = load ptr, ptr %8, align 8
  %42 = getelementptr inbounds nuw %struct.evkeyval, ptr %41, i32 0, i32 0
  %43 = getelementptr inbounds nuw %struct.anon.10, ptr %42, i32 0, i32 1
  store ptr %40, ptr %43, align 8
  %44 = load ptr, ptr %8, align 8
  %45 = load ptr, ptr %5, align 8
  %46 = getelementptr inbounds nuw %struct.evkeyvalq, ptr %45, i32 0, i32 1
  %47 = load ptr, ptr %46, align 8
  store ptr %44, ptr %47, align 8
  %48 = load ptr, ptr %8, align 8
  %49 = getelementptr inbounds nuw %struct.evkeyval, ptr %48, i32 0, i32 0
  %50 = getelementptr inbounds nuw %struct.anon.10, ptr %49, i32 0, i32 0
  %51 = load ptr, ptr %5, align 8
  %52 = getelementptr inbounds nuw %struct.evkeyvalq, ptr %51, i32 0, i32 1
  store ptr %50, ptr %52, align 8
  br label %53

53:                                               ; preds = %34
  br label %54

54:                                               ; preds = %53
  store i32 0, ptr %4, align 4
  store i32 1, ptr %9, align 4
  br label %55

55:                                               ; preds = %54, %28, %20, %13
  call void @llvm.lifetime.end.p0(i64 8, ptr %8) #11
  %56 = load i32, ptr %4, align 4
  ret i32 %56
}