; Function Attrs: nounwind uwtable
define internal fastcc range(i32 -1, 1) i32 @evhttp_add_header_internal(ptr noundef captures(none) %0, ptr noundef %1, ptr noundef %2) unnamed_addr #0 {
  %4 = tail call ptr @event_mm_calloc_(i64 noundef 1, i64 noundef 32) #18
  %5 = icmp eq ptr %4, null
  br i1 %5, label %6, label %7

6:                                                ; preds = %3
  tail call void (ptr, ...) @event_warn(ptr noundef nonnull @.str.31, ptr noundef nonnull @__func__.evhttp_add_header_internal) #18
  br label %22

7:                                                ; preds = %3
  %8 = tail call ptr @event_mm_strdup_(ptr noundef %1) #18
  %9 = getelementptr inbounds nuw i8, ptr %4, i64 16
  store ptr %8, ptr %9, align 8
  %10 = icmp eq ptr %8, null
  br i1 %10, label %11, label %12

11:                                               ; preds = %7
  tail call void @event_mm_free_(ptr noundef nonnull %4) #18
  tail call void (ptr, ...) @event_warn(ptr noundef nonnull @.str.2, ptr noundef nonnull @__func__.evhttp_add_header_internal) #18
  br label %22

12:                                               ; preds = %7
  %13 = tail call ptr @event_mm_strdup_(ptr noundef %2) #18
  %14 = getelementptr inbounds nuw i8, ptr %4, i64 24
  store ptr %13, ptr %14, align 8
  %15 = icmp eq ptr %13, null
  br i1 %15, label %16, label %18

16:                                               ; preds = %12
  %17 = load ptr, ptr %9, align 8
  tail call void @event_mm_free_(ptr noundef %17) #18
  tail call void @event_mm_free_(ptr noundef nonnull %4) #18
  tail call void (ptr, ...) @event_warn(ptr noundef nonnull @.str.2, ptr noundef nonnull @__func__.evhttp_add_header_internal) #18
  br label %22

18:                                               ; preds = %12
  store ptr null, ptr %4, align 8
  %19 = getelementptr inbounds nuw i8, ptr %0, i64 8
  %20 = load ptr, ptr %19, align 8
  %21 = getelementptr inbounds nuw i8, ptr %4, i64 8
  store ptr %20, ptr %21, align 8
  store ptr %4, ptr %20, align 8
  store ptr %4, ptr %19, align 8
  br label %22

22:                                               ; preds = %18, %16, %11, %6
  %.0 = phi i32 [ -1, %6 ], [ -1, %11 ], [ -1, %16 ], [ 0, %18 ]
  ret i32 %.0
}